target datalayout = "e-m:e-p270:32:32-p271:32:32-p272:64:64-i64:64-i128:128-f80:128-n8:16:32:64-S128"
target triple = "x86_64-pc-linux-gnu"

%class.CryptData = type { [4 x %"struct.CryptData::KDF3CacheItem"], i32, [4 x i8], [4 x %"struct.CryptData::KDF5CacheItem"], i32, i32, %class.Rijndael, [256 x i32], [256 x i8], [4 x i32], [3 x i8], [4 x i16], [4 x i8] }
%"struct.CryptData::KDF3CacheItem" = type { %class.SecPassword, [8 x i8], [16 x i8], [16 x i8], i8, [7 x i8] }
%class.SecPassword = type <{ %"class.std::vector", i8, [7 x i8] }>
%"class.std::vector" = type { %"struct.std::_Vector_base" }
%"struct.std::_Vector_base" = type { %"struct.std::_Vector_base<wchar_t, std::allocator<wchar_t>>::_Vector_impl" }
%"struct.std::_Vector_base<wchar_t, std::allocator<wchar_t>>::_Vector_impl" = type { %"struct.std::_Vector_base<wchar_t, std::allocator<wchar_t>>::_Vector_impl_data" }
%"struct.std::_Vector_base<wchar_t, std::allocator<wchar_t>>::_Vector_impl_data" = type { ptr, ptr, ptr }
%"struct.CryptData::KDF5CacheItem" = type { %class.SecPassword, [16 x i8], [32 x i8], i32, [32 x i8], [32 x i8], [4 x i8] }
%class.Rijndael = type { i8, i32, [16 x i8], [15 x [4 x [4 x i8]]] }

; Function Attrs: mustprogress nounwind uwtable
define void @_ZN9CryptData9Decrypt13EPhm(ptr noundef nonnull align 8 dereferenceable(2516) %0, ptr noundef %1, i64 noundef %2) #0 align 2 {
  %4 = alloca ptr, align 8
  %5 = alloca ptr, align 8
  %6 = alloca i64, align 8
  store ptr %0, ptr %4, align 8
  store ptr %1, ptr %5, align 8
  store i64 %2, ptr %6, align 8
  %7 = load ptr, ptr %4, align 8
  br label %8

8:                                                ; preds = %12, %3
  %9 = load i64, ptr %6, align 8
  %10 = add i64 %9, -1
  store i64 %10, ptr %6, align 8
  %11 = icmp ne i64 %9, 0
  br i1 %11, label %12, label %44

12:                                               ; preds = %8
  %13 = getelementptr inbounds %class.CryptData, ptr %7, i32 0, i32 10
  %14 = getelementptr inbounds [3 x i8], ptr %13, i64 0, i64 2
  %15 = load i8, ptr %14, align 2
  %16 = zext i8 %15 to i32
  %17 = getelementptr inbounds %class.CryptData, ptr %7, i32 0, i32 10
  %18 = getelementptr inbounds [3 x i8], ptr %17, i64 0, i64 1
  %19 = load i8, ptr %18, align 1
  %20 = zext i8 %19 to i32
  %21 = add nsw i32 %20, %16
  %22 = trunc i32 %21 to i8
  store i8 %22, ptr %18, align 1
  %23 = getelementptr inbounds %class.CryptData, ptr %7, i32 0, i32 10
  %24 = getelementptr inbounds [3 x i8], ptr %23, i64 0, i64 1
  %25 = load i8, ptr %24, align 1
  %26 = zext i8 %25 to i32
  %27 = getelementptr inbounds %class.CryptData, ptr %7, i32 0, i32 10
  %28 = getelementptr inbounds [3 x i8], ptr %27, i64 0, i64 0
  %29 = load i8, ptr %28, align 8
  %30 = zext i8 %29 to i32
  %31 = add nsw i32 %30, %26
  %32 = trunc i32 %31 to i8
  store i8 %32, ptr %28, align 8
  %33 = getelementptr inbounds %class.CryptData, ptr %7, i32 0, i32 10
  %34 = getelementptr inbounds [3 x i8], ptr %33, i64 0, i64 0
  %35 = load i8, ptr %34, align 8
  %36 = zext i8 %35 to i32
  %37 = load ptr, ptr %5, align 8
  %38 = load i8, ptr %37, align 1
  %39 = zext i8 %38 to i32
  %40 = sub nsw i32 %39, %36
  %41 = trunc i32 %40 to i8
  store i8 %41, ptr %37, align 1
  %42 = load ptr, ptr %5, align 8
  %43 = getelementptr inbounds i8, ptr %42, i32 1
  store ptr %43, ptr %5, align 8
  br label %8, !llvm.loop !7

44:                                               ; preds = %8
  ret void
}