; Function Attrs: mustprogress nofree norecurse nosync nounwind memory(argmem: readwrite) uwtable
define void @_ZN9CryptData9Decrypt13EPhm(ptr noundef nonnull align 8 captures(none) dereferenceable(2516) %0, ptr noundef captures(none) %1, i64 noundef %2) local_unnamed_addr #0 align 2 {
  %.not4 = icmp eq i64 %2, 0
  br i1 %.not4, label %._crit_edge, label %.lr.ph

.lr.ph:                                           ; preds = %3
  %4 = getelementptr inbounds nuw i8, ptr %0, i64 2504
  %5 = getelementptr inbounds nuw i8, ptr %0, i64 2506
  %6 = getelementptr inbounds nuw i8, ptr %0, i64 2505
  br label %7

7:                                                ; preds = %.lr.ph, %7
  %.06 = phi i64 [ %2, %.lr.ph ], [ %8, %7 ]
  %.035 = phi ptr [ %1, %.lr.ph ], [ %16, %7 ]
  %8 = add i64 %.06, -1
  %9 = load i8, ptr %5, align 2
  %10 = load i8, ptr %6, align 1
  %11 = add i8 %10, %9
  store i8 %11, ptr %6, align 1
  %12 = load i8, ptr %4, align 8
  %13 = add i8 %12, %11
  store i8 %13, ptr %4, align 8
  %14 = load i8, ptr %.035, align 1
  %15 = sub i8 %14, %13
  store i8 %15, ptr %.035, align 1
  %16 = getelementptr inbounds nuw i8, ptr %.035, i64 1
  %.not = icmp eq i64 %8, 0
  br i1 %.not, label %._crit_edge, label %7, !llvm.loop !7

._crit_edge:                                      ; preds = %7, %3
  ret void
}